target datalayout = "e-m:e-p270:32:32-p271:32:32-p272:64:64-i64:64-i128:128-f80:128-n8:16:32:64-S128"
target triple = "x86_64-pc-linux-gnu"

%"class.zxing::BitArray" = type { %"class.zxing::Counted.base", i32, %"class.zxing::ArrayRef", %"class.zxing::ArrayRef.0", %"class.zxing::ArrayRef.0" }
%"class.zxing::Counted.base" = type <{ ptr, i32 }>
%"class.zxing::ArrayRef" = type { %"class.zxing::Counted.base", ptr }
%"class.zxing::ArrayRef.0" = type { %"class.zxing::Counted.base", ptr }
%"class.zxing::Array" = type { %"class.zxing::Counted.base", %"class.std::vector" }
%"class.std::vector" = type { %"struct.std::_Vector_base" }
%"struct.std::_Vector_base" = type { %"struct.std::_Vector_base<unsigned char, std::allocator<unsigned char>>::_Vector_impl" }
%"struct.std::_Vector_base<unsigned char, std::allocator<unsigned char>>::_Vector_impl" = type { %"struct.std::_Vector_base<unsigned char, std::allocator<unsigned char>>::_Vector_impl_data" }
%"struct.std::_Vector_base<unsigned char, std::allocator<unsigned char>>::_Vector_impl_data" = type { ptr, ptr, ptr }
%"class.zxing::Array.4" = type { %"class.zxing::Counted.base", %"class.std::vector.5" }
%"class.std::vector.5" = type { %"struct.std::_Vector_base.6" }
%"struct.std::_Vector_base.6" = type { %"struct.std::_Vector_base<int, std::allocator<int>>::_Vector_impl" }
%"struct.std::_Vector_base<int, std::allocator<int>>::_Vector_impl" = type { %"struct.std::_Vector_base<int, std::allocator<int>>::_Vector_impl_data" }
%"struct.std::_Vector_base<int, std::allocator<int>>::_Vector_impl_data" = type { ptr, ptr, ptr }

; Function Attrs: mustprogress nounwind uwtable
define linkonce_odr hidden noundef nonnull align 1 dereferenceable(1) ptr @_ZNSt6vectorIhSaIhEEixEm(ptr noundef nonnull align 8 dereferenceable(24) %0, i64 noundef %1) #1 comdat align 2 {
  %3 = alloca ptr, align 8
  %4 = alloca i64, align 8
  store ptr %0, ptr %3, align 8, !tbaa !85
  store i64 %1, ptr %4, align 8, !tbaa !56
  %5 = load ptr, ptr %3, align 8
  %6 = getelementptr inbounds nuw %"struct.std::_Vector_base", ptr %5, i32 0, i32 0
  %7 = getelementptr inbounds nuw %"struct.std::_Vector_base<unsigned char, std::allocator<unsigned char>>::_Vector_impl_data", ptr %6, i32 0, i32 0
  %8 = load ptr, ptr %7, align 8, !tbaa !87
  %9 = load i64, ptr %4, align 8, !tbaa !56
  %10 = getelementptr inbounds nuw i8, ptr %8, i64 %9
  ret ptr %10
}

; Function Attrs: mustprogress nounwind uwtable
define linkonce_odr hidden noundef nonnull align 4 dereferenceable(4) ptr @_ZNSt6vectorIiSaIiEEixEm(ptr noundef nonnull align 8 dereferenceable(24) %0, i64 noundef %1) #1 comdat align 2 {
  %3 = alloca ptr, align 8
  %4 = alloca i64, align 8
  store ptr %0, ptr %3, align 8, !tbaa !48
  store i64 %1, ptr %4, align 8, !tbaa !56
  %5 = load ptr, ptr %3, align 8
  %6 = getelementptr inbounds nuw %"struct.std::_Vector_base.6", ptr %5, i32 0, i32 0
  %7 = getelementptr inbounds nuw %"struct.std::_Vector_base<int, std::allocator<int>>::_Vector_impl_data", ptr %6, i32 0, i32 0
  %8 = load ptr, ptr %7, align 8, !tbaa !55
  %9 = load i64, ptr %4, align 8, !tbaa !56
  %10 = getelementptr inbounds nuw i32, ptr %8, i64 %9
  ret ptr %10
}

; Function Attrs: mustprogress nounwind uwtable
define linkonce_odr hidden noundef ptr @_ZN5zxing5ArrayIhE4dataEv(ptr noundef nonnull align 8 dereferenceable(40) %0) #1 comdat align 2 {
  %2 = alloca ptr, align 8
  store ptr %0, ptr %2, align 8, !tbaa !39
  %3 = load ptr, ptr %2, align 8
  %4 = getelementptr inbounds nuw %"class.zxing::Array", ptr %3, i32 0, i32 1
  %5 = call noundef nonnull align 1 dereferenceable(1) ptr @_ZNSt6vectorIhSaIhEEixEm(ptr noundef nonnull align 8 dereferenceable(24) %4, i64 noundef 0) #12
  ret ptr %5
}

; Function Attrs: mustprogress nounwind uwtable
define linkonce_odr hidden noundef ptr @_ZNK5zxing8ArrayRefIhEptEv(ptr noundef nonnull align 8 dereferenceable(24) %0) #1 comdat align 2 {
  %2 = alloca ptr, align 8
  store ptr %0, ptr %2, align 8, !tbaa !22
  %3 = load ptr, ptr %2, align 8
  %4 = getelementptr inbounds nuw %"class.zxing::ArrayRef", ptr %3, i32 0, i32 1
  %5 = load ptr, ptr %4, align 8, !tbaa !24
  ret ptr %5
}

; Function Attrs: mustprogress nounwind uwtable
define linkonce_odr hidden noundef ptr @_ZN5zxing5ArrayIiE4dataEv(ptr noundef nonnull align 8 dereferenceable(40) %0) #1 comdat align 2 {
  %2 = alloca ptr, align 8
  store ptr %0, ptr %2, align 8, !tbaa !47
  %3 = load ptr, ptr %2, align 8
  %4 = getelementptr inbounds nuw %"class.zxing::Array.4", ptr %3, i32 0, i32 1
  %5 = call noundef nonnull align 4 dereferenceable(4) ptr @_ZNSt6vectorIiSaIiEEixEm(ptr noundef nonnull align 8 dereferenceable(24) %4, i64 noundef 0) #12
  ret ptr %5
}

; Function Attrs: mustprogress nounwind uwtable
define linkonce_odr hidden noundef ptr @_ZNK5zxing8ArrayRefIiEptEv(ptr noundef nonnull align 8 dereferenceable(24) %0) #1 comdat align 2 {
  %2 = alloca ptr, align 8
  store ptr %0, ptr %2, align 8, !tbaa !25
  %3 = load ptr, ptr %2, align 8
  %4 = getelementptr inbounds nuw %"class.zxing::ArrayRef.0", ptr %3, i32 0, i32 1
  %5 = load ptr, ptr %4, align 8, !tbaa !27
  ret ptr %5
}

; Function Attrs: mustprogress uwtable
define linkonce_odr hidden noundef ptr @_ZN5zxing8BitArray13getRowBoolPtrEv(ptr noundef nonnull align 8 dereferenceable(88) %0) #0 comdat align 2 {
  %2 = alloca ptr, align 8
  store ptr %0, ptr %2, align 8, !tbaa !3
  %3 = load ptr, ptr %2, align 8
  %4 = getelementptr inbounds nuw %"class.zxing::BitArray", ptr %3, i32 0, i32 2
  %5 = call noundef ptr @_ZNK5zxing8ArrayRefIhEptEv(ptr noundef nonnull align 8 dereferenceable(24) %4)
  %6 = call noundef ptr @_ZN5zxing5ArrayIhE4dataEv(ptr noundef nonnull align 8 dereferenceable(40) %5)
  ret ptr %6
}

; Function Attrs: mustprogress uwtable
define hidden void @_ZN5zxing8BitArray15initAllNextSetsEv(ptr noundef nonnull align 8 dereferenceable(88) %0) #0 align 2 {
  %2 = alloca ptr, align 8
  %3 = alloca ptr, align 8
  %4 = alloca ptr, align 8
  %5 = alloca ptr, align 8
  %6 = alloca i32, align 4
  store ptr %0, ptr %2, align 8, !tbaa !3
  %7 = load ptr, ptr %2, align 8
  call void @llvm.lifetime.start.p0(i64 8, ptr %3) #12
  %8 = call noundef ptr @_ZN5zxing8BitArray13getRowBoolPtrEv(ptr noundef nonnull align 8 dereferenceable(88) %7)
  store ptr %8, ptr %3, align 8, !tbaa !40
  call void @llvm.lifetime.start.p0(i64 8, ptr %4) #12
  %9 = getelementptr inbounds nuw %"class.zxing::BitArray", ptr %7, i32 0, i32 3
  %10 = call noundef ptr @_ZNK5zxing8ArrayRefIiEptEv(ptr noundef nonnull align 8 dereferenceable(24) %9)
  %11 = call noundef ptr @_ZN5zxing5ArrayIiE4dataEv(ptr noundef nonnull align 8 dereferenceable(40) %10)
  store ptr %11, ptr %4, align 8, !tbaa !44
  call void @llvm.lifetime.start.p0(i64 8, ptr %5) #12
  %12 = getelementptr inbounds nuw %"class.zxing::BitArray", ptr %7, i32 0, i32 4
  %13 = call noundef ptr @_ZNK5zxing8ArrayRefIiEptEv(ptr noundef nonnull align 8 dereferenceable(24) %12)
  %14 = call noundef ptr @_ZN5zxing5ArrayIiE4dataEv(ptr noundef nonnull align 8 dereferenceable(40) %13)
  store ptr %14, ptr %5, align 8, !tbaa !44
  %15 = load ptr, ptr %3, align 8, !tbaa !40
  %16 = getelementptr inbounds nuw %"class.zxing::BitArray", ptr %7, i32 0, i32 1
  %17 = load i32, ptr %16, align 4, !tbaa !12
  %18 = sub nsw i32 %17, 1
  %19 = sext i32 %18 to i64
  %20 = getelementptr inbounds i8, ptr %15, i64 %19
  %21 = load i8, ptr %20, align 1, !tbaa !29, !range !33, !noundef !34
  %22 = trunc i8 %21 to i1
  br i1 %22, label %23, label %41

23:                                               ; preds = %1
  %24 = getelementptr inbounds nuw %"class.zxing::BitArray", ptr %7, i32 0, i32 1
  %25 = load i32, ptr %24, align 4, !tbaa !12
  %26 = sub nsw i32 %25, 1
  %27 = load ptr, ptr %4, align 8, !tbaa !44
  %28 = getelementptr inbounds nuw %"class.zxing::BitArray", ptr %7, i32 0, i32 1
  %29 = load i32, ptr %28, align 4, !tbaa !12
  %30 = sub nsw i32 %29, 1
  %31 = sext i32 %30 to i64
  %32 = getelementptr inbounds i32, ptr %27, i64 %31
  store i32 %26, ptr %32, align 4, !tbaa !8
  %33 = getelementptr inbounds nuw %"class.zxing::BitArray", ptr %7, i32 0, i32 1
  %34 = load i32, ptr %33, align 4, !tbaa !12
  %35 = load ptr, ptr %5, align 8, !tbaa !44
  %36 = getelementptr inbounds nuw %"class.zxing::BitArray", ptr %7, i32 0, i32 1
  %37 = load i32, ptr %36, align 4, !tbaa !12
  %38 = sub nsw i32 %37, 1
  %39 = sext i32 %38 to i64
  %40 = getelementptr inbounds i32, ptr %35, i64 %39
  store i32 %34, ptr %40, align 4, !tbaa !8
  br label %59

41:                                               ; preds = %1
  %42 = getelementptr inbounds nuw %"class.zxing::BitArray", ptr %7, i32 0, i32 1
  %43 = load i32, ptr %42, align 4, !tbaa !12
  %44 = sub nsw i32 %43, 1
  %45 = load ptr, ptr %5, align 8, !tbaa !44
  %46 = getelementptr inbounds nuw %"class.zxing::BitArray", ptr %7, i32 0, i32 1
  %47 = load i32, ptr %46, align 4, !tbaa !12
  %48 = sub nsw i32 %47, 1
  %49 = sext i32 %48 to i64
  %50 = getelementptr inbounds i32, ptr %45, i64 %49
  store i32 %44, ptr %50, align 4, !tbaa !8
  %51 = getelementptr inbounds nuw %"class.zxing::BitArray", ptr %7, i32 0, i32 1
  %52 = load i32, ptr %51, align 4, !tbaa !12
  %53 = load ptr, ptr %4, align 8, !tbaa !44
  %54 = getelementptr inbounds nuw %"class.zxing::BitArray", ptr %7, i32 0, i32 1
  %55 = load i32, ptr %54, align 4, !tbaa !12
  %56 = sub nsw i32 %55, 1
  %57 = sext i32 %56 to i64
  %58 = getelementptr inbounds i32, ptr %53, i64 %57
  store i32 %52, ptr %58, align 4, !tbaa !8
  br label %59

59:                                               ; preds = %41, %23
  call void @llvm.lifetime.start.p0(i64 4, ptr %6) #12
  %60 = getelementptr inbounds nuw %"class.zxing::BitArray", ptr %7, i32 0, i32 1
  %61 = load i32, ptr %60, align 4, !tbaa !12
  %62 = sub nsw i32 %61, 2
  store i32 %62, ptr %6, align 4, !tbaa !8
  br label %63

63:                                               ; preds = %107, %59
  %64 = load i32, ptr %6, align 4, !tbaa !8
  %65 = icmp sge i32 %64, 0
  br i1 %65, label %67, label %66

66:                                               ; preds = %63
  call void @llvm.lifetime.end.p0(i64 4, ptr %6) #12
  br label %110

67:                                               ; preds = %63
  %68 = load ptr, ptr %3, align 8, !tbaa !40
  %69 = load i32, ptr %6, align 4, !tbaa !8
  %70 = sext i32 %69 to i64
  %71 = getelementptr inbounds i8, ptr %68, i64 %70
  %72 = load i8, ptr %71, align 1, !tbaa !29, !range !33, !noundef !34
  %73 = trunc i8 %72 to i1
  br i1 %73, label %74, label %90

74:                                               ; preds = %67
  %75 = load i32, ptr %6, align 4, !tbaa !8
  %76 = load ptr, ptr %4, align 8, !tbaa !44
  %77 = load i32, ptr %6, align 4, !tbaa !8
  %78 = sext i32 %77 to i64
  %79 = getelementptr inbounds i32, ptr %76, i64 %78
  store i32 %75, ptr %79, align 4, !tbaa !8
  %80 = load ptr, ptr %5, align 8, !tbaa !44
  %81 = load i32, ptr %6, align 4, !tbaa !8
  %82 = add nsw i32 %81, 1
  %83 = sext i32 %82 to i64
  %84 = getelementptr inbounds i32, ptr %80, i64 %83
  %85 = load i32, ptr %84, align 4, !tbaa !8
  %86 = load ptr, ptr %5, align 8, !tbaa !44
  %87 = load i32, ptr %6, align 4, !tbaa !8
  %88 = sext i32 %87 to i64
  %89 = getelementptr inbounds i32, ptr %86, i64 %88
  store i32 %85, ptr %89, align 4, !tbaa !8
  br label %106

90:                                               ; preds = %67
  %91 = load i32, ptr %6, align 4, !tbaa !8
  %92 = load ptr, ptr %5, align 8, !tbaa !44
  %93 = load i32, ptr %6, align 4, !tbaa !8
  %94 = sext i32 %93 to i64
  %95 = getelementptr inbounds i32, ptr %92, i64 %94
  store i32 %91, ptr %95, align 4, !tbaa !8
  %96 = load ptr, ptr %4, align 8, !tbaa !44
  %97 = load i32, ptr %6, align 4, !tbaa !8
  %98 = add nsw i32 %97, 1
  %99 = sext i32 %98 to i64
  %100 = getelementptr inbounds i32, ptr %96, i64 %99
  %101 = load i32, ptr %100, align 4, !tbaa !8
  %102 = load ptr, ptr %4, align 8, !tbaa !44
  %103 = load i32, ptr %6, align 4, !tbaa !8
  %104 = sext i32 %103 to i64
  %105 = getelementptr inbounds i32, ptr %102, i64 %104
  store i32 %101, ptr %105, align 4, !tbaa !8
  br label %106

106:                                              ; preds = %90, %74
  br label %107

107:                                              ; preds = %106
  %108 = load i32, ptr %6, align 4, !tbaa !8
  %109 = add nsw i32 %108, -1
  store i32 %109, ptr %6, align 4, !tbaa !8
  br label %63, !llvm.loop !46

110:                                              ; preds = %66
  call void @llvm.lifetime.end.p0(i64 8, ptr %5) #12
  call void @llvm.lifetime.end.p0(i64 8, ptr %4) #12
  call void @llvm.lifetime.end.p0(i64 8, ptr %3) #12
  ret void
}