; Function Attrs: mustprogress nofree norecurse nosync nounwind memory(readwrite, inaccessiblemem: none) uwtable
define hidden void @_ZN5zxing8BitArray15initAllNextSetsEv(ptr noundef nonnull readonly align 8 captures(none) dereferenceable(88) %0) local_unnamed_addr #6 align 2 {
  %2 = getelementptr inbounds nuw i8, ptr %0, i64 32
  %3 = load ptr, ptr %2, align 8, !tbaa !17
  %4 = getelementptr inbounds nuw i8, ptr %3, i64 16
  %5 = load ptr, ptr %4, align 8, !tbaa !18
  %6 = getelementptr inbounds nuw i8, ptr %0, i64 56
  %7 = load ptr, ptr %6, align 8, !tbaa !23
  %8 = getelementptr inbounds nuw i8, ptr %7, i64 16
  %9 = load ptr, ptr %8, align 8, !tbaa !24
  %10 = getelementptr inbounds nuw i8, ptr %0, i64 80
  %11 = load ptr, ptr %10, align 8, !tbaa !23
  %12 = getelementptr inbounds nuw i8, ptr %11, i64 16
  %13 = load ptr, ptr %12, align 8, !tbaa !24
  %14 = getelementptr inbounds nuw i8, ptr %0, i64 12
  %15 = load i32, ptr %14, align 4, !tbaa !10
  %16 = add nsw i32 %15, -1
  %17 = sext i32 %16 to i64
  %18 = getelementptr inbounds i8, ptr %5, i64 %17
  %19 = load i8, ptr %18, align 1, !tbaa !38, !range !40, !noundef !41
  %20 = trunc nuw i8 %19 to i1
  %. = select i1 %20, ptr %9, ptr %13
  %.35 = select i1 %20, ptr %13, ptr %9
  %21 = getelementptr inbounds i32, ptr %., i64 %17
  store i32 %16, ptr %21, align 4, !tbaa !28
  %22 = load i32, ptr %14, align 4, !tbaa !10
  %23 = sext i32 %22 to i64
  %24 = getelementptr i32, ptr %.35, i64 %23
  %25 = getelementptr i8, ptr %24, i64 -4
  store i32 %22, ptr %25, align 4, !tbaa !28
  %26 = icmp sgt i32 %22, 1
  br i1 %26, label %.lr.ph.preheader, label %._crit_edge

.lr.ph.preheader:                                 ; preds = %1
  %27 = add nsw i32 %22, -2
  %28 = zext nneg i32 %27 to i64
  br label %.lr.ph

._crit_edge:                                      ; preds = %.lr.ph, %1
  ret void

.lr.ph:                                           ; preds = %.lr.ph.preheader, %.lr.ph
  %indvars.iv = phi i64 [ %28, %.lr.ph.preheader ], [ %indvars.iv.next, %.lr.ph ]
  %29 = getelementptr inbounds nuw i8, ptr %5, i64 %indvars.iv
  %30 = load i8, ptr %29, align 1, !tbaa !38, !range !40, !noundef !41
  %31 = trunc nuw i8 %30 to i1
  %32 = trunc nuw nsw i64 %indvars.iv to i32
  %.36 = select i1 %31, ptr %9, ptr %13
  %.37 = select i1 %31, ptr %13, ptr %9
  %33 = getelementptr inbounds nuw i32, ptr %.36, i64 %indvars.iv
  store i32 %32, ptr %33, align 4, !tbaa !28
  %34 = getelementptr inbounds nuw i32, ptr %.37, i64 %indvars.iv
  %35 = getelementptr inbounds nuw i8, ptr %34, i64 4
  %36 = load i32, ptr %35, align 4, !tbaa !28
  store i32 %36, ptr %34, align 4, !tbaa !28
  %indvars.iv.next = add nsw i64 %indvars.iv, -1
  %37 = icmp sgt i64 %indvars.iv, 0
  br i1 %37, label %.lr.ph, label %._crit_edge, !llvm.loop !44
}